; Function Attrs: mustprogress uwtable
define hidden void @_ZN5osgeo4proj4util10BaseObjectC2Ev(ptr nocapture noundef nonnull writeonly align 8 dereferenceable(16) %0) unnamed_addr #0 align 2 personality ptr @__gxx_personality_v0 {
  store ptr getelementptr inbounds inrange(-16, 16) ({ [4 x ptr] }, ptr @_ZTVN5osgeo4proj4util10BaseObjectE, i64 0, i32 0, i64 2), ptr %0, align 8
  %2 = getelementptr inbounds i8, ptr %0, i64 8
  tail call void @llvm.experimental.noalias.scope.decl(metadata !4)
  %3 = tail call noalias noundef nonnull dereferenceable(16) ptr @_Znwm(i64 noundef 16) #23, !noalias !4
  tail call void @llvm.memset.p0.i64(ptr noundef nonnull align 8 dereferenceable(16) %3, i8 0, i64 16, i1 false), !noalias !4
  store ptr %3, ptr %2, align 8, !alias.scope !4
  ret void
}